target datalayout = "e-m:e-p270:32:32-p271:32:32-p272:64:64-i64:64-i128:128-f80:128-n8:16:32:64-S128"
target triple = "x86_64-pc-linux-gnu"

%"struct.icu_77::FormattedStringBuilder::Field" = type { i8 }
%"class.icu_77::FormattedStringBuilder" = type { i8, %"union.icu_77::FormattedStringBuilder::ValueOrHeapArray", %"union.icu_77::FormattedStringBuilder::ValueOrHeapArray.0", i32, i32 }
%"union.icu_77::FormattedStringBuilder::ValueOrHeapArray" = type { %struct.anon, [64 x i8] }
%struct.anon = type { ptr, i32 }
%"union.icu_77::FormattedStringBuilder::ValueOrHeapArray.0" = type { %struct.anon.1, [24 x i8] }
%struct.anon.1 = type { ptr, i32 }
%"class.icu_77::UnicodeString" = type { %"class.icu_77::Replaceable", %"union.icu_77::UnicodeString::StackBufferOrFields" }
%"class.icu_77::Replaceable" = type { %"class.icu_77::UObject" }
%"class.icu_77::UObject" = type { ptr }
%"union.icu_77::UnicodeString::StackBufferOrFields" = type { %struct.anon.3, [32 x i8] }
%struct.anon.3 = type { i16, i32, i32, ptr }
%struct.anon.2 = type { i16, [27 x i16] }

; Function Attrs: inlinehint mustprogress nounwind uwtable
define linkonce_odr noundef i32 @_ZNK6icu_7713UnicodeString14getShortLengthEv(ptr noundef nonnull align 8 dereferenceable(64) %0) #5 comdat align 2 {
  %2 = alloca ptr, align 8
  store ptr %0, ptr %2, align 8, !tbaa !32
  %3 = load ptr, ptr %2, align 8
  %4 = getelementptr inbounds nuw %"class.icu_77::UnicodeString", ptr %3, i32 0, i32 1
  %5 = getelementptr inbounds nuw %struct.anon.3, ptr %4, i32 0, i32 0
  %6 = load i16, ptr %5, align 8, !tbaa !16
  %7 = sext i16 %6 to i32
  %8 = ashr i32 %7, 5
  ret i32 %8
}

; Function Attrs: inlinehint mustprogress nounwind uwtable
define linkonce_odr noundef signext i8 @_ZNK6icu_7713UnicodeString14hasShortLengthEv(ptr noundef nonnull align 8 dereferenceable(64) %0) #5 comdat align 2 {
  %2 = alloca ptr, align 8
  store ptr %0, ptr %2, align 8, !tbaa !32
  %3 = load ptr, ptr %2, align 8
  %4 = getelementptr inbounds nuw %"class.icu_77::UnicodeString", ptr %3, i32 0, i32 1
  %5 = getelementptr inbounds nuw %struct.anon.3, ptr %4, i32 0, i32 0
  %6 = load i16, ptr %5, align 8, !tbaa !16
  %7 = sext i16 %6 to i32
  %8 = icmp sge i32 %7, 0
  %9 = zext i1 %8 to i8
  ret i8 %9
}

; Function Attrs: inlinehint mustprogress nounwind uwtable
define linkonce_odr noundef ptr @_ZNK6icu_7713UnicodeString13getArrayStartEv(ptr noundef nonnull align 8 dereferenceable(64) %0) #5 comdat align 2 {
  %2 = alloca ptr, align 8
  store ptr %0, ptr %2, align 8, !tbaa !32
  %3 = load ptr, ptr %2, align 8
  %4 = getelementptr inbounds nuw %"class.icu_77::UnicodeString", ptr %3, i32 0, i32 1
  %5 = getelementptr inbounds nuw %struct.anon.3, ptr %4, i32 0, i32 0
  %6 = load i16, ptr %5, align 8, !tbaa !16
  %7 = sext i16 %6 to i32
  %8 = and i32 %7, 2
  %9 = icmp ne i32 %8, 0
  br i1 %9, label %10, label %14

10:                                               ; preds = %1
  %11 = getelementptr inbounds nuw %"class.icu_77::UnicodeString", ptr %3, i32 0, i32 1
  %12 = getelementptr inbounds nuw %struct.anon.2, ptr %11, i32 0, i32 1
  %13 = getelementptr inbounds [27 x i16], ptr %12, i64 0, i64 0
  br label %18

14:                                               ; preds = %1
  %15 = getelementptr inbounds nuw %"class.icu_77::UnicodeString", ptr %3, i32 0, i32 1
  %16 = getelementptr inbounds nuw %struct.anon.3, ptr %15, i32 0, i32 3
  %17 = load ptr, ptr %16, align 8, !tbaa !16
  br label %18

18:                                               ; preds = %14, %10
  %19 = phi ptr [ %13, %10 ], [ %17, %14 ]
  ret ptr %19
}

; Function Attrs: inlinehint mustprogress uwtable
define linkonce_odr noundef i32 @_ZNK6icu_7713UnicodeString6lengthEv(ptr noundef nonnull align 8 dereferenceable(64) %0) #8 comdat align 2 {
  %2 = alloca ptr, align 8
  store ptr %0, ptr %2, align 8, !tbaa !32
  %3 = load ptr, ptr %2, align 8
  %4 = call noundef signext i8 @_ZNK6icu_7713UnicodeString14hasShortLengthEv(ptr noundef nonnull align 8 dereferenceable(64) %3)
  %5 = icmp ne i8 %4, 0
  br i1 %5, label %6, label %8

6:                                                ; preds = %1
  %7 = call noundef i32 @_ZNK6icu_7713UnicodeString14getShortLengthEv(ptr noundef nonnull align 8 dereferenceable(64) %3)
  br label %12

8:                                                ; preds = %1
  %9 = getelementptr inbounds nuw %"class.icu_77::UnicodeString", ptr %3, i32 0, i32 1
  %10 = getelementptr inbounds nuw %struct.anon.3, ptr %9, i32 0, i32 1
  %11 = load i32, ptr %10, align 4, !tbaa !16
  br label %12

12:                                               ; preds = %8, %6
  %13 = phi i32 [ %7, %6 ], [ %11, %8 ]
  ret i32 %13
}

; Function Attrs: inlinehint mustprogress uwtable
define linkonce_odr noundef zeroext i16 @_ZNK6icu_7713UnicodeString8doCharAtEi(ptr noundef nonnull align 8 dereferenceable(64) %0, i32 noundef %1) #8 comdat align 2 {
  %3 = alloca i16, align 2
  %4 = alloca ptr, align 8
  %5 = alloca i32, align 4
  store ptr %0, ptr %4, align 8, !tbaa !32
  store i32 %1, ptr %5, align 4, !tbaa !17
  %6 = load ptr, ptr %4, align 8
  %7 = load i32, ptr %5, align 4, !tbaa !17
  %8 = call noundef i32 @_ZNK6icu_7713UnicodeString6lengthEv(ptr noundef nonnull align 8 dereferenceable(64) %6)
  %9 = icmp ult i32 %7, %8
  br i1 %9, label %10, label %16

10:                                               ; preds = %2
  %11 = call noundef ptr @_ZNK6icu_7713UnicodeString13getArrayStartEv(ptr noundef nonnull align 8 dereferenceable(64) %6)
  %12 = load i32, ptr %5, align 4, !tbaa !17
  %13 = sext i32 %12 to i64
  %14 = getelementptr inbounds i16, ptr %11, i64 %13
  %15 = load i16, ptr %14, align 2, !tbaa !25
  store i16 %15, ptr %3, align 2
  br label %17

16:                                               ; preds = %2
  store i16 -1, ptr %3, align 2
  br label %17

17:                                               ; preds = %16, %10
  %18 = load i16, ptr %3, align 2
  ret i16 %18
}

; Function Attrs: inlinehint mustprogress nounwind uwtable
define linkonce_odr noundef i32 @_ZNK6icu_7722FormattedStringBuilder11getCapacityEv(ptr noundef nonnull align 8 dereferenceable(136) %0) #5 comdat align 2 {
  %2 = alloca ptr, align 8
  store ptr %0, ptr %2, align 8, !tbaa !3
  %3 = load ptr, ptr %2, align 8
  %4 = getelementptr inbounds nuw %"class.icu_77::FormattedStringBuilder", ptr %3, i32 0, i32 0
  %5 = load i8, ptr %4, align 8, !tbaa !8, !range !14, !noundef !15
  %6 = trunc i8 %5 to i1
  br i1 %6, label %7, label %11

7:                                                ; preds = %1
  %8 = getelementptr inbounds nuw %"class.icu_77::FormattedStringBuilder", ptr %3, i32 0, i32 1
  %9 = getelementptr inbounds nuw %struct.anon, ptr %8, i32 0, i32 1
  %10 = load i32, ptr %9, align 8, !tbaa !16
  br label %12

11:                                               ; preds = %1
  br label %12

12:                                               ; preds = %11, %7
  %13 = phi i32 [ %10, %7 ], [ 40, %11 ]
  ret i32 %13
}

; Function Attrs: inlinehint mustprogress nounwind uwtable
define linkonce_odr noundef ptr @_ZN6icu_7722FormattedStringBuilder11getFieldPtrEv(ptr noundef nonnull align 8 dereferenceable(136) %0) #5 comdat align 2 {
  %2 = alloca ptr, align 8
  store ptr %0, ptr %2, align 8, !tbaa !3
  %3 = load ptr, ptr %2, align 8
  %4 = getelementptr inbounds nuw %"class.icu_77::FormattedStringBuilder", ptr %3, i32 0, i32 0
  %5 = load i8, ptr %4, align 8, !tbaa !8, !range !14, !noundef !15
  %6 = trunc i8 %5 to i1
  br i1 %6, label %7, label %11

7:                                                ; preds = %1
  %8 = getelementptr inbounds nuw %"class.icu_77::FormattedStringBuilder", ptr %3, i32 0, i32 2
  %9 = getelementptr inbounds nuw %struct.anon.1, ptr %8, i32 0, i32 0
  %10 = load ptr, ptr %9, align 8, !tbaa !16
  br label %14

11:                                               ; preds = %1
  %12 = getelementptr inbounds nuw %"class.icu_77::FormattedStringBuilder", ptr %3, i32 0, i32 2
  %13 = getelementptr inbounds [40 x %"struct.icu_77::FormattedStringBuilder::Field"], ptr %12, i64 0, i64 0
  br label %14

14:                                               ; preds = %11, %7
  %15 = phi ptr [ %10, %7 ], [ %13, %11 ]
  ret ptr %15
}

; Function Attrs: inlinehint mustprogress nounwind uwtable
define linkonce_odr noundef ptr @_ZN6icu_7722FormattedStringBuilder10getCharPtrEv(ptr noundef nonnull align 8 dereferenceable(136) %0) #5 comdat align 2 {
  %2 = alloca ptr, align 8
  store ptr %0, ptr %2, align 8, !tbaa !3
  %3 = load ptr, ptr %2, align 8
  %4 = getelementptr inbounds nuw %"class.icu_77::FormattedStringBuilder", ptr %3, i32 0, i32 0
  %5 = load i8, ptr %4, align 8, !tbaa !8, !range !14, !noundef !15
  %6 = trunc i8 %5 to i1
  br i1 %6, label %7, label %11

7:                                                ; preds = %1
  %8 = getelementptr inbounds nuw %"class.icu_77::FormattedStringBuilder", ptr %3, i32 0, i32 1
  %9 = getelementptr inbounds nuw %struct.anon, ptr %8, i32 0, i32 0
  %10 = load ptr, ptr %9, align 8, !tbaa !16
  br label %14

11:                                               ; preds = %1
  %12 = getelementptr inbounds nuw %"class.icu_77::FormattedStringBuilder", ptr %3, i32 0, i32 1
  %13 = getelementptr inbounds [40 x i16], ptr %12, i64 0, i64 0
  br label %14

14:                                               ; preds = %11, %7
  %15 = phi ptr [ %10, %7 ], [ %13, %11 ]
  ret ptr %15
}

; Function Attrs: inlinehint mustprogress uwtable
define linkonce_odr noundef zeroext i16 @_ZNK6icu_7713UnicodeString6charAtEi(ptr noundef nonnull align 8 dereferenceable(64) %0, i32 noundef %1) #8 comdat align 2 {
  %3 = alloca ptr, align 8
  %4 = alloca i32, align 4
  store ptr %0, ptr %3, align 8, !tbaa !32
  store i32 %1, ptr %4, align 4, !tbaa !17
  %5 = load ptr, ptr %3, align 8
  %6 = load i32, ptr %4, align 4, !tbaa !17
  %7 = call noundef zeroext i16 @_ZNK6icu_7713UnicodeString8doCharAtEi(ptr noundef nonnull align 8 dereferenceable(64) %5, i32 noundef %6)
  ret i16 %7
}

; Function Attrs: inlinehint mustprogress nounwind uwtable
define internal noundef signext i8 @_ZL9U_FAILURE10UErrorCode(i32 noundef %0) #5 {
  %2 = alloca i32, align 4
  store i32 %0, ptr %2, align 4, !tbaa !29
  %3 = load i32, ptr %2, align 4, !tbaa !29
  %4 = icmp sgt i32 %3, 0
  %5 = zext i1 %4 to i8
  ret i8 %5
}

; Function Attrs: mustprogress uwtable
define noundef i32 @_ZN6icu_7722FormattedStringBuilder16prepareForInsertEiiR10UErrorCode(ptr noundef nonnull align 8 dereferenceable(136) %0, i32 noundef %1, i32 noundef %2, ptr noundef nonnull align 4 dereferenceable(4) %3) #3 align 2 {
  %5 = alloca i32, align 4
  %6 = alloca ptr, align 8
  %7 = alloca i32, align 4
  %8 = alloca i32, align 4
  %9 = alloca ptr, align 8
  store ptr %0, ptr %6, align 8, !tbaa !3
  store i32 %1, ptr %7, align 4, !tbaa !17
  store i32 %2, ptr %8, align 4, !tbaa !17
  store ptr %3, ptr %9, align 8, !tbaa !22
  %10 = load ptr, ptr %6, align 8
  %11 = load ptr, ptr %9, align 8, !tbaa !22
  %12 = load i32, ptr %11, align 4, !tbaa !29
  %13 = call noundef signext i8 @_ZL9U_FAILURE10UErrorCode(i32 noundef %12)
  %14 = icmp ne i8 %13, 0
  br i1 %14, label %15, label %17

15:                                               ; preds = %4
  %16 = load i32, ptr %8, align 4, !tbaa !17
  store i32 %16, ptr %5, align 4
  br label %69

17:                                               ; preds = %4
  %18 = load i32, ptr %7, align 4, !tbaa !17
  %19 = icmp eq i32 %18, 0
  br i1 %19, label %20, label %37

20:                                               ; preds = %17
  %21 = getelementptr inbounds nuw %"class.icu_77::FormattedStringBuilder", ptr %10, i32 0, i32 3
  %22 = load i32, ptr %21, align 8, !tbaa !12
  %23 = load i32, ptr %8, align 4, !tbaa !17
  %24 = sub nsw i32 %22, %23
  %25 = icmp sge i32 %24, 0
  br i1 %25, label %26, label %37

26:                                               ; preds = %20
  %27 = load i32, ptr %8, align 4, !tbaa !17
  %28 = getelementptr inbounds nuw %"class.icu_77::FormattedStringBuilder", ptr %10, i32 0, i32 3
  %29 = load i32, ptr %28, align 8, !tbaa !12
  %30 = sub nsw i32 %29, %27
  store i32 %30, ptr %28, align 8, !tbaa !12
  %31 = load i32, ptr %8, align 4, !tbaa !17
  %32 = getelementptr inbounds nuw %"class.icu_77::FormattedStringBuilder", ptr %10, i32 0, i32 4
  %33 = load i32, ptr %32, align 4, !tbaa !13
  %34 = add nsw i32 %33, %31
  store i32 %34, ptr %32, align 4, !tbaa !13
  %35 = getelementptr inbounds nuw %"class.icu_77::FormattedStringBuilder", ptr %10, i32 0, i32 3
  %36 = load i32, ptr %35, align 8, !tbaa !12
  store i32 %36, ptr %5, align 4
  br label %69

37:                                               ; preds = %20, %17
  %38 = load i32, ptr %7, align 4, !tbaa !17
  %39 = getelementptr inbounds nuw %"class.icu_77::FormattedStringBuilder", ptr %10, i32 0, i32 4
  %40 = load i32, ptr %39, align 4, !tbaa !13
  %41 = icmp eq i32 %38, %40
  br i1 %41, label %42, label %64

42:                                               ; preds = %37
  %43 = load i32, ptr %8, align 4, !tbaa !17
  %44 = call noundef i32 @_ZNK6icu_7722FormattedStringBuilder11getCapacityEv(ptr noundef nonnull align 8 dereferenceable(136) %10)
  %45 = getelementptr inbounds nuw %"class.icu_77::FormattedStringBuilder", ptr %10, i32 0, i32 3
  %46 = load i32, ptr %45, align 8, !tbaa !12
  %47 = sub nsw i32 %44, %46
  %48 = getelementptr inbounds nuw %"class.icu_77::FormattedStringBuilder", ptr %10, i32 0, i32 4
  %49 = load i32, ptr %48, align 4, !tbaa !13
  %50 = sub nsw i32 %47, %49
  %51 = icmp sle i32 %43, %50
  br i1 %51, label %52, label %64

52:                                               ; preds = %42
  %53 = load i32, ptr %8, align 4, !tbaa !17
  %54 = getelementptr inbounds nuw %"class.icu_77::FormattedStringBuilder", ptr %10, i32 0, i32 4
  %55 = load i32, ptr %54, align 4, !tbaa !13
  %56 = add nsw i32 %55, %53
  store i32 %56, ptr %54, align 4, !tbaa !13
  %57 = getelementptr inbounds nuw %"class.icu_77::FormattedStringBuilder", ptr %10, i32 0, i32 3
  %58 = load i32, ptr %57, align 8, !tbaa !12
  %59 = getelementptr inbounds nuw %"class.icu_77::FormattedStringBuilder", ptr %10, i32 0, i32 4
  %60 = load i32, ptr %59, align 4, !tbaa !13
  %61 = add nsw i32 %58, %60
  %62 = load i32, ptr %8, align 4, !tbaa !17
  %63 = sub nsw i32 %61, %62
  store i32 %63, ptr %5, align 4
  br label %69

64:                                               ; preds = %42, %37
  %65 = load i32, ptr %7, align 4, !tbaa !17
  %66 = load i32, ptr %8, align 4, !tbaa !17
  %67 = load ptr, ptr %9, align 8, !tbaa !22
  %68 = call noundef i32 @_ZN6icu_7722FormattedStringBuilder22prepareForInsertHelperEiiR10UErrorCode(ptr noundef nonnull align 8 dereferenceable(136) %10, i32 noundef %65, i32 noundef %66, ptr noundef nonnull align 4 dereferenceable(4) %67)
  store i32 %68, ptr %5, align 4
  br label %69

69:                                               ; preds = %64, %52, %26, %15
  %70 = load i32, ptr %5, align 4
  ret i32 %70
}

; Function Attrs: mustprogress uwtable
define noundef i32 @_ZN6icu_7722FormattedStringBuilder6insertEiRKNS_13UnicodeStringEiiNS0_5FieldER10UErrorCode(ptr noundef nonnull align 8 dereferenceable(136) %0, i32 noundef %1, ptr noundef nonnull align 8 dereferenceable(64) %2, i32 noundef %3, i32 noundef %4, i8 %5, ptr noundef nonnull align 4 dereferenceable(4) %6) #3 align 2 {
  %8 = alloca i32, align 4
  %9 = alloca %"struct.icu_77::FormattedStringBuilder::Field", align 1
  %10 = alloca ptr, align 8
  %11 = alloca i32, align 4
  %12 = alloca ptr, align 8
  %13 = alloca i32, align 4
  %14 = alloca i32, align 4
  %15 = alloca ptr, align 8
  %16 = alloca i32, align 4
  %17 = alloca i32, align 4
  %18 = alloca i32, align 4
  %19 = alloca i32, align 4
  %20 = getelementptr inbounds nuw %"struct.icu_77::FormattedStringBuilder::Field", ptr %9, i32 0, i32 0
  store i8 %5, ptr %20, align 1
  store ptr %0, ptr %10, align 8, !tbaa !3
  store i32 %1, ptr %11, align 4, !tbaa !17
  store ptr %2, ptr %12, align 8, !tbaa !32
  store i32 %3, ptr %13, align 4, !tbaa !17
  store i32 %4, ptr %14, align 4, !tbaa !17
  store ptr %6, ptr %15, align 8, !tbaa !22
  %21 = load ptr, ptr %10, align 8
  call void @llvm.lifetime.start.p0(i64 4, ptr %16) #11
  %22 = load i32, ptr %14, align 4, !tbaa !17
  %23 = load i32, ptr %13, align 4, !tbaa !17
  %24 = sub nsw i32 %22, %23
  store i32 %24, ptr %16, align 4, !tbaa !17
  call void @llvm.lifetime.start.p0(i64 4, ptr %17) #11
  %25 = load i32, ptr %11, align 4, !tbaa !17
  %26 = load i32, ptr %16, align 4, !tbaa !17
  %27 = load ptr, ptr %15, align 8, !tbaa !22
  %28 = call noundef i32 @_ZN6icu_7722FormattedStringBuilder16prepareForInsertEiiR10UErrorCode(ptr noundef nonnull align 8 dereferenceable(136) %21, i32 noundef %25, i32 noundef %26, ptr noundef nonnull align 4 dereferenceable(4) %27)
  store i32 %28, ptr %17, align 4, !tbaa !17
  %29 = load ptr, ptr %15, align 8, !tbaa !22
  %30 = load i32, ptr %29, align 4, !tbaa !29
  %31 = call noundef signext i8 @_ZL9U_FAILURE10UErrorCode(i32 noundef %30)
  %32 = icmp ne i8 %31, 0
  br i1 %32, label %33, label %35

33:                                               ; preds = %7
  %34 = load i32, ptr %16, align 4, !tbaa !17
  store i32 %34, ptr %8, align 4
  store i32 1, ptr %18, align 4
  br label %64

35:                                               ; preds = %7
  call void @llvm.lifetime.start.p0(i64 4, ptr %19) #11
  store i32 0, ptr %19, align 4, !tbaa !17
  br label %36

36:                                               ; preds = %59, %35
  %37 = load i32, ptr %19, align 4, !tbaa !17
  %38 = load i32, ptr %16, align 4, !tbaa !17
  %39 = icmp slt i32 %37, %38
  br i1 %39, label %41, label %40

40:                                               ; preds = %36
  store i32 2, ptr %18, align 4
  call void @llvm.lifetime.end.p0(i64 4, ptr %19) #11
  br label %62

41:                                               ; preds = %36
  %42 = load ptr, ptr %12, align 8, !tbaa !32
  %43 = load i32, ptr %13, align 4, !tbaa !17
  %44 = load i32, ptr %19, align 4, !tbaa !17
  %45 = add nsw i32 %43, %44
  %46 = call noundef zeroext i16 @_ZNK6icu_7713UnicodeString6charAtEi(ptr noundef nonnull align 8 dereferenceable(64) %42, i32 noundef %45)
  %47 = call noundef ptr @_ZN6icu_7722FormattedStringBuilder10getCharPtrEv(ptr noundef nonnull align 8 dereferenceable(136) %21)
  %48 = load i32, ptr %17, align 4, !tbaa !17
  %49 = load i32, ptr %19, align 4, !tbaa !17
  %50 = add nsw i32 %48, %49
  %51 = sext i32 %50 to i64
  %52 = getelementptr inbounds i16, ptr %47, i64 %51
  store i16 %46, ptr %52, align 2, !tbaa !25
  %53 = call noundef ptr @_ZN6icu_7722FormattedStringBuilder11getFieldPtrEv(ptr noundef nonnull align 8 dereferenceable(136) %21)
  %54 = load i32, ptr %17, align 4, !tbaa !17
  %55 = load i32, ptr %19, align 4, !tbaa !17
  %56 = add nsw i32 %54, %55
  %57 = sext i32 %56 to i64
  %58 = getelementptr inbounds %"struct.icu_77::FormattedStringBuilder::Field", ptr %53, i64 %57
  call void @llvm.memcpy.p0.p0.i64(ptr align 1 %58, ptr align 1 %9, i64 1, i1 false), !tbaa.struct !31
  br label %59

59:                                               ; preds = %41
  %60 = load i32, ptr %19, align 4, !tbaa !17
  %61 = add nsw i32 %60, 1
  store i32 %61, ptr %19, align 4, !tbaa !17
  br label %36, !llvm.loop !34

62:                                               ; preds = %40
  %63 = load i32, ptr %16, align 4, !tbaa !17
  store i32 %63, ptr %8, align 4
  store i32 1, ptr %18, align 4
  br label %64

64:                                               ; preds = %62, %33
  call void @llvm.lifetime.end.p0(i64 4, ptr %17) #11
  call void @llvm.lifetime.end.p0(i64 4, ptr %16) #11
  %65 = load i32, ptr %8, align 4
  ret i32 %65
}