; Function Attrs: mustprogress uwtable
define noundef i32 @_ZN6icu_7722FormattedStringBuilder6insertEiRKNS_13UnicodeStringEiiNS0_5FieldER10UErrorCode(ptr noundef nonnull align 8 dereferenceable(136) %0, i32 noundef %1, ptr noundef nonnull readonly align 8 captures(none) dereferenceable(64) %2, i32 noundef %3, i32 noundef %4, i8 %5, ptr noundef nonnull align 4 captures(none) dereferenceable(4) %6) local_unnamed_addr #5 align 2 {
  %8 = sub i32 %4, %3
  %9 = load i32, ptr %6, align 4, !tbaa !16
  %10 = icmp slt i32 %9, 1
  br i1 %10, label %11, label %.loopexit

11:                                               ; preds = %7
  %12 = icmp eq i32 %1, 0
  br i1 %12, label %13, label %22

13:                                               ; preds = %11
  %14 = getelementptr inbounds nuw i8, ptr %0, i64 128
  %15 = load i32, ptr %14, align 8, !tbaa !9
  %16 = sub nsw i32 %15, %8
  %17 = icmp sgt i32 %16, -1
  br i1 %17, label %18, label %22

18:                                               ; preds = %13
  store i32 %16, ptr %14, align 8, !tbaa !9
  %19 = getelementptr inbounds nuw i8, ptr %0, i64 132
  %20 = load i32, ptr %19, align 4, !tbaa !10
  %21 = add nsw i32 %20, %8
  store i32 %21, ptr %19, align 4, !tbaa !10
  br label %_ZN6icu_7722FormattedStringBuilder16prepareForInsertEiiR10UErrorCode.exit

22:                                               ; preds = %13, %11
  %23 = getelementptr inbounds nuw i8, ptr %0, i64 132
  %24 = load i32, ptr %23, align 4, !tbaa !10
  %25 = icmp eq i32 %1, %24
  br i1 %25, label %26, label %38

26:                                               ; preds = %22
  %27 = load i8, ptr %0, align 8, !tbaa !3, !range !11, !noundef !12
  %28 = trunc nuw i8 %27 to i1
  %29 = getelementptr inbounds nuw i8, ptr %0, i64 16
  %30 = load i32, ptr %29, align 8
  %31 = select i1 %28, i32 %30, i32 40
  %32 = getelementptr inbounds nuw i8, ptr %0, i64 128
  %33 = load i32, ptr %32, align 8, !tbaa !9
  %34 = add i32 %33, %1
  %35 = sub i32 %31, %34
  %.not16.i = icmp sgt i32 %8, %35
  br i1 %.not16.i, label %38, label %36

36:                                               ; preds = %26
  %37 = add nsw i32 %8, %1
  store i32 %37, ptr %23, align 4, !tbaa !10
  br label %_ZN6icu_7722FormattedStringBuilder16prepareForInsertEiiR10UErrorCode.exit

38:                                               ; preds = %26, %22
  %39 = tail call noundef i32 @_ZN6icu_7722FormattedStringBuilder22prepareForInsertHelperEiiR10UErrorCode(ptr noundef nonnull align 8 dereferenceable(136) %0, i32 noundef %1, i32 noundef %8, ptr noundef nonnull align 4 dereferenceable(4) %6)
  %.pre = load i32, ptr %6, align 4, !tbaa !16
  br label %_ZN6icu_7722FormattedStringBuilder16prepareForInsertEiiR10UErrorCode.exit

_ZN6icu_7722FormattedStringBuilder16prepareForInsertEiiR10UErrorCode.exit: ; preds = %18, %36, %38
  %40 = phi i32 [ %9, %18 ], [ %9, %36 ], [ %.pre, %38 ]
  %.0.i = phi i32 [ %16, %18 ], [ %34, %36 ], [ %39, %38 ]
  %41 = icmp slt i32 %40, 1
  %42 = icmp sgt i32 %8, 0
  %or.cond = and i1 %41, %42
  br i1 %or.cond, label %.lr.ph, label %.loopexit

.lr.ph:                                           ; preds = %_ZN6icu_7722FormattedStringBuilder16prepareForInsertEiiR10UErrorCode.exit
  %43 = getelementptr inbounds nuw i8, ptr %2, i64 8
  %44 = getelementptr inbounds nuw i8, ptr %2, i64 12
  %45 = getelementptr inbounds nuw i8, ptr %2, i64 10
  %46 = getelementptr inbounds nuw i8, ptr %2, i64 24
  %47 = getelementptr inbounds nuw i8, ptr %0, i64 8
  %48 = getelementptr inbounds nuw i8, ptr %0, i64 88
  %49 = sext i32 %3 to i64
  %50 = sext i32 %.0.i to i64
  %wide.trip.count = zext nneg i32 %8 to i64
  br label %51

51:                                               ; preds = %.lr.ph, %_ZNK6icu_7713UnicodeString6charAtEi.exit
  %indvars.iv = phi i64 [ 0, %.lr.ph ], [ %indvars.iv.next, %_ZNK6icu_7713UnicodeString6charAtEi.exit ]
  %52 = add nsw i64 %indvars.iv, %49
  %53 = load i16, ptr %43, align 8, !tbaa !13
  %54 = icmp slt i16 %53, 0
  %55 = ashr i16 %53, 5
  %56 = sext i16 %55 to i32
  %57 = load i32, ptr %44, align 4
  %58 = select i1 %54, i32 %57, i32 %56
  %59 = trunc nsw i64 %52 to i32
  %60 = icmp ugt i32 %58, %59
  br i1 %60, label %61, label %_ZNK6icu_7713UnicodeString6charAtEi.exit

61:                                               ; preds = %51
  %62 = and i16 %53, 2
  %.not.i.i.i = icmp eq i16 %62, 0
  %63 = load ptr, ptr %46, align 8
  %64 = select i1 %.not.i.i.i, ptr %63, ptr %45
  %65 = getelementptr inbounds i16, ptr %64, i64 %52
  %66 = load i16, ptr %65, align 2, !tbaa !14
  br label %_ZNK6icu_7713UnicodeString6charAtEi.exit

_ZNK6icu_7713UnicodeString6charAtEi.exit:         ; preds = %51, %61
  %.0.i.i = phi i16 [ %66, %61 ], [ -1, %51 ]
  %67 = load i8, ptr %0, align 8, !tbaa !3, !range !11, !noundef !12
  %68 = trunc nuw i8 %67 to i1
  %69 = load ptr, ptr %47, align 8
  %70 = select i1 %68, ptr %69, ptr %47
  %71 = add nsw i64 %indvars.iv, %50
  %72 = getelementptr inbounds i16, ptr %70, i64 %71
  store i16 %.0.i.i, ptr %72, align 2, !tbaa !14
  %73 = load ptr, ptr %48, align 8
  %74 = select i1 %68, ptr %73, ptr %48
  %75 = getelementptr inbounds %"struct.icu_77::FormattedStringBuilder::Field", ptr %74, i64 %71
  store i8 %5, ptr %75, align 1, !tbaa !13
  %indvars.iv.next = add nuw nsw i64 %indvars.iv, 1
  %exitcond.not = icmp eq i64 %indvars.iv.next, %wide.trip.count
  br i1 %exitcond.not, label %.loopexit, label %51, !llvm.loop !18

.loopexit:                                        ; preds = %_ZNK6icu_7713UnicodeString6charAtEi.exit, %7, %_ZN6icu_7722FormattedStringBuilder16prepareForInsertEiiR10UErrorCode.exit
  ret i32 %8
}